; Function Attrs: nofree norecurse nosync nounwind memory(read, argmem: readwrite, inaccessiblemem: none) uwtable
define void @SUNDlsMat_DensePOTRS(ptr noundef readonly captures(none) %0, ptr noundef captures(none) %1) local_unnamed_addr #1 {
  %3 = getelementptr inbounds nuw i8, ptr %0, i64 72
  %4 = load ptr, ptr %3, align 8, !tbaa !3
  %5 = getelementptr inbounds nuw i8, ptr %0, i64 8
  %6 = load i64, ptr %5, align 8, !tbaa !12
  %7 = add i64 %6, -1
  %8 = icmp sgt i64 %6, 1
  br i1 %8, label %.lr.ph.preheader.i, label %._crit_edge.i

.loopexit.i:                                      ; preds = %.lr.ph.i
  %exitcond64.not.i = icmp eq i64 %16, %7
  br i1 %exitcond64.not.i, label %._crit_edge.i, label %.lr.ph.preheader.i

.lr.ph.preheader.i:                               ; preds = %2, %.loopexit.i
  %.053.i = phi i64 [ %16, %.loopexit.i ], [ 0, %2 ]
  %9 = getelementptr inbounds nuw ptr, ptr %4, i64 %.053.i
  %10 = load ptr, ptr %9, align 8, !tbaa !14
  %11 = getelementptr inbounds nuw double, ptr %10, i64 %.053.i
  %12 = load double, ptr %11, align 8, !tbaa !15
  %13 = getelementptr inbounds nuw double, ptr %1, i64 %.053.i
  %14 = load double, ptr %13, align 8, !tbaa !15
  %15 = fdiv double %14, %12
  store double %15, ptr %13, align 8, !tbaa !15
  %16 = add nuw nsw i64 %.053.i, 1
  br label %.lr.ph.i

.lr.ph.i:                                         ; preds = %.lr.ph.i, %.lr.ph.preheader.i
  %.04952.i = phi i64 [ %24, %.lr.ph.i ], [ %16, %.lr.ph.preheader.i ]
  %17 = load double, ptr %13, align 8, !tbaa !15
  %18 = getelementptr inbounds nuw double, ptr %10, i64 %.04952.i
  %19 = load double, ptr %18, align 8, !tbaa !15
  %20 = getelementptr inbounds nuw double, ptr %1, i64 %.04952.i
  %21 = load double, ptr %20, align 8, !tbaa !15
  %22 = fneg double %17
  %23 = tail call double @llvm.fmuladd.f64(double %22, double %19, double %21)
  store double %23, ptr %20, align 8, !tbaa !15
  %24 = add nuw nsw i64 %.04952.i, 1
  %exitcond.not.i = icmp eq i64 %24, %6
  br i1 %exitcond.not.i, label %.loopexit.i, label %.lr.ph.i

._crit_edge.i:                                    ; preds = %.loopexit.i, %2
  %25 = getelementptr inbounds ptr, ptr %4, i64 %7
  %26 = load ptr, ptr %25, align 8, !tbaa !14
  %27 = getelementptr inbounds double, ptr %26, i64 %7
  %28 = load double, ptr %27, align 8, !tbaa !15
  %29 = getelementptr inbounds double, ptr %1, i64 %7
  %30 = load double, ptr %29, align 8, !tbaa !15
  %31 = fdiv double %30, %28
  store double %31, ptr %29, align 8, !tbaa !15
  %32 = load double, ptr %27, align 8, !tbaa !15
  %33 = fdiv double %31, %32
  store double %33, ptr %29, align 8, !tbaa !15
  br i1 %8, label %.lr.ph62.preheader.i, label %SUNDlsMat_densePOTRS.exit

.lr.ph62.preheader.i:                             ; preds = %._crit_edge.i
  %34 = add nsw i64 %6, -2
  br label %.lr.ph62.i

.lr.ph62.i:                                       ; preds = %._crit_edge59.i, %.lr.ph62.preheader.i
  %.15060.i = phi i64 [ %50, %._crit_edge59.i ], [ %34, %.lr.ph62.preheader.i ]
  %35 = getelementptr inbounds nuw ptr, ptr %4, i64 %.15060.i
  %36 = load ptr, ptr %35, align 8, !tbaa !14
  %.155.i = add nuw nsw i64 %.15060.i, 1
  %37 = icmp slt i64 %.155.i, %6
  %38 = getelementptr inbounds nuw double, ptr %1, i64 %.15060.i
  %.promoted.i = load double, ptr %38, align 8, !tbaa !15
  br i1 %37, label %.lr.ph58.i, label %._crit_edge59.i

.lr.ph58.i:                                       ; preds = %.lr.ph62.i, %.lr.ph58.i
  %39 = phi double [ %45, %.lr.ph58.i ], [ %.promoted.i, %.lr.ph62.i ]
  %.156.i = phi i64 [ %.1.i, %.lr.ph58.i ], [ %.155.i, %.lr.ph62.i ]
  %40 = getelementptr inbounds nuw double, ptr %36, i64 %.156.i
  %41 = load double, ptr %40, align 8, !tbaa !15
  %42 = getelementptr inbounds nuw double, ptr %1, i64 %.156.i
  %43 = load double, ptr %42, align 8, !tbaa !15
  %44 = fneg double %41
  %45 = tail call double @llvm.fmuladd.f64(double %44, double %43, double %39)
  store double %45, ptr %38, align 8, !tbaa !15
  %.1.i = add nuw nsw i64 %.156.i, 1
  %exitcond65.not.i = icmp eq i64 %.1.i, %6
  br i1 %exitcond65.not.i, label %._crit_edge59.i, label %.lr.ph58.i

._crit_edge59.i:                                  ; preds = %.lr.ph58.i, %.lr.ph62.i
  %46 = phi double [ %.promoted.i, %.lr.ph62.i ], [ %45, %.lr.ph58.i ]
  %47 = getelementptr inbounds nuw double, ptr %36, i64 %.15060.i
  %48 = load double, ptr %47, align 8, !tbaa !15
  %49 = fdiv double %46, %48
  store double %49, ptr %38, align 8, !tbaa !15
  %50 = add nsw i64 %.15060.i, -1
  %51 = icmp sgt i64 %.15060.i, 0
  br i1 %51, label %.lr.ph62.i, label %SUNDlsMat_densePOTRS.exit

SUNDlsMat_densePOTRS.exit:                        ; preds = %._crit_edge59.i, %._crit_edge.i
  ret void
}